target datalayout = "e-m:e-p270:32:32-p271:32:32-p272:64:64-i64:64-i128:128-f80:128-n8:16:32:64-S128"
target triple = "x86_64-pc-linux-gnu"

%struct.slurm_msg = type { %struct.sockaddr_storage, ptr, i32, i32, i32, i8, i32, i8, i32, ptr, ptr, i32, ptr, ptr, i16, i8, i16, i16, %struct.forward, ptr, %struct.sockaddr_storage, ptr }
%struct.forward = type { %struct.slurm_node_alias_addrs_t, i16, i16, ptr, i32, i16, i16 }
%struct.slurm_node_alias_addrs_t = type { i64, ptr, ptr, i32, ptr }
%struct.sockaddr_storage = type { i16, [118 x i8], i64 }

; Function Attrs: nounwind uwtable
define dso_local i32 @slurm_ping(i32 noundef %0) #0 {
  %2 = alloca i32, align 4
  %3 = alloca i32, align 4
  %4 = alloca %struct.slurm_msg, align 8
  store i32 %0, ptr %2, align 4
  call void @llvm.lifetime.start.p0(i64 4, ptr %3) #6
  call void @llvm.lifetime.start.p0(i64 424, ptr %4) #6
  call void @slurm_msg_t_init(ptr noundef %4)
  %5 = getelementptr inbounds nuw %struct.slurm_msg, ptr %4, i32 0, i32 16
  store i16 1008, ptr %5, align 4
  %6 = load i32, ptr %2, align 4
  %7 = call i32 @_send_message_controller(i32 noundef %6, ptr noundef %4)
  store i32 %7, ptr %3, align 4
  %8 = load i32, ptr %3, align 4
  call void @llvm.lifetime.end.p0(i64 424, ptr %4) #6
  call void @llvm.lifetime.end.p0(i64 4, ptr %3) #6
  ret i32 %8
}