; Function Attrs: nounwind uwtable
define dso_local range(i32 -1, 1803) i32 @slurm_ping(i32 noundef %0) local_unnamed_addr #0 {
  %2 = alloca %struct.slurm_msg, align 8
  call void @llvm.lifetime.start.p0(i64 424, ptr nonnull %2) #6
  call void @slurm_msg_t_init(ptr noundef nonnull %2) #6
  %3 = getelementptr inbounds nuw i8, ptr %2, i64 212
  store i16 1008, ptr %3, align 4
  %4 = call fastcc i32 @_send_message_controller(i32 noundef %0, ptr noundef %2)
  call void @llvm.lifetime.end.p0(i64 424, ptr nonnull %2) #6
  ret i32 %4
}